target datalayout = "e-m:e-p270:32:32-p271:32:32-p272:64:64-i64:64-i128:128-f80:128-n8:16:32:64-S128"
target triple = "x86_64-unknown-linux-gnu"

%"class.icu_75::UnicodeString" = type { %"class.icu_75::Replaceable", %"union.icu_75::UnicodeString::StackBufferOrFields" }
%"class.icu_75::Replaceable" = type { %"class.icu_75::UObject" }
%"class.icu_75::UObject" = type { ptr }
%"union.icu_75::UnicodeString::StackBufferOrFields" = type { %struct.anon.0, [32 x i8] }
%struct.anon.0 = type { i16, i32, i32, ptr }
%"class.icu_75::UVector" = type { %"class.icu_75::UObject", i32, i32, ptr, ptr, ptr }
%"class.icu_75::TransliteratorRegistry" = type { [8 x i8], %"class.icu_75::Hashtable", %"class.icu_75::Hashtable", %"class.icu_75::UVector", %"class.icu_75::Hashtable" }
%"class.icu_75::Hashtable" = type { ptr, %struct.UHashtable }
%struct.UHashtable = type { ptr, ptr, ptr, ptr, ptr, ptr, i32, i32, i32, i32, float, float, i8, i8 }
%struct.UHashElement = type { i32, %union.UElement, %union.UElement }
%union.UElement = type { ptr }
%"class.icu_75::TransliteratorRegistry::Enumeration" = type { %"class.icu_75::StringEnumeration.base", i32, i32, ptr }
%"class.icu_75::StringEnumeration.base" = type <{ %"class.icu_75::UObject", %"class.icu_75::UnicodeString", [32 x i8], ptr, i32 }>
%"class.icu_75::StringEnumeration" = type <{ %"class.icu_75::UObject", %"class.icu_75::UnicodeString", [32 x i8], ptr, i32, [4 x i8] }>

; Function Attrs: mustprogress uwtable
define linkonce_odr noundef ptr @_ZNK6icu_759Hashtable11nextElementERi(ptr noundef nonnull align 8 dereferenceable(88) %this, ptr noundef nonnull align 4 dereferenceable(4) %pos) #1 comdat align 2 {
entry:
  %this.addr = alloca ptr, align 8
  %pos.addr = alloca ptr, align 8
  store ptr %this, ptr %this.addr, align 8
  store ptr %pos, ptr %pos.addr, align 8
  %this1 = load ptr, ptr %this.addr, align 8
  %hash = getelementptr inbounds %"class.icu_75::Hashtable", ptr %this1, i32 0, i32 0
  %0 = load ptr, ptr %hash, align 8
  %1 = load ptr, ptr %pos.addr, align 8
  %call = call ptr @uhash_nextElement_75(ptr noundef %0, ptr noundef %1)
  ret ptr %call
}

; Function Attrs: mustprogress uwtable
define linkonce_odr noundef i32 @_ZNK6icu_759Hashtable5countEv(ptr noundef nonnull align 8 dereferenceable(88) %this) #1 comdat align 2 {
entry:
  %this.addr = alloca ptr, align 8
  store ptr %this, ptr %this.addr, align 8
  %this1 = load ptr, ptr %this.addr, align 8
  %hash = getelementptr inbounds %"class.icu_75::Hashtable", ptr %this1, i32 0, i32 0
  %0 = load ptr, ptr %hash, align 8
  %call = call i32 @uhash_count_75(ptr noundef %0)
  ret i32 %call
}

; Function Attrs: mustprogress nounwind uwtable
define internal noundef signext i8 @_ZL9U_FAILURE10UErrorCode(i32 noundef %code) #0 {
entry:
  %code.addr = alloca i32, align 4
  store i32 %code, ptr %code.addr, align 4
  %0 = load i32, ptr %code.addr, align 4
  %cmp = icmp sgt i32 %0, 0
  %conv = zext i1 %cmp to i8
  ret i8 %conv
}

; Function Attrs: mustprogress uwtable
define noundef ptr @_ZN6icu_7522TransliteratorRegistry11Enumeration5snextER10UErrorCode(ptr noundef nonnull align 8 dereferenceable(136) %this, ptr noundef nonnull align 4 dereferenceable(4) %status) unnamed_addr #1 align 2 {
entry:
  %retval = alloca ptr, align 8
  %this.addr = alloca ptr, align 8
  %status.addr = alloca ptr, align 8
  %n = alloca i32, align 4
  %element = alloca ptr, align 8
  store ptr %this, ptr %this.addr, align 8
  store ptr %status, ptr %status.addr, align 8
  %this1 = load ptr, ptr %this.addr, align 8
  %0 = load ptr, ptr %status.addr, align 8
  %1 = load i32, ptr %0, align 4
  %call = call noundef signext i8 @_ZL9U_FAILURE10UErrorCode(i32 noundef %1)
  %tobool = icmp ne i8 %call, 0
  br i1 %tobool, label %if.then, label %if.end

if.then:                                          ; preds = %entry
  store ptr null, ptr %retval, align 8
  br label %return

if.end:                                           ; preds = %entry
  %reg = getelementptr inbounds %"class.icu_75::TransliteratorRegistry::Enumeration", ptr %this1, i32 0, i32 3
  %2 = load ptr, ptr %reg, align 8
  %availableIDs = getelementptr inbounds %"class.icu_75::TransliteratorRegistry", ptr %2, i32 0, i32 4
  %call2 = call noundef i32 @_ZNK6icu_759Hashtable5countEv(ptr noundef nonnull align 8 dereferenceable(88) %availableIDs)
  store i32 %call2, ptr %n, align 4
  %3 = load i32, ptr %n, align 4
  %size = getelementptr inbounds %"class.icu_75::TransliteratorRegistry::Enumeration", ptr %this1, i32 0, i32 2
  %4 = load i32, ptr %size, align 8
  %cmp = icmp ne i32 %3, %4
  br i1 %cmp, label %if.then3, label %if.end4

if.then3:                                         ; preds = %if.end
  %5 = load ptr, ptr %status.addr, align 8
  store i32 25, ptr %5, align 4
  store ptr null, ptr %retval, align 8
  br label %return

if.end4:                                          ; preds = %if.end
  %reg5 = getelementptr inbounds %"class.icu_75::TransliteratorRegistry::Enumeration", ptr %this1, i32 0, i32 3
  %6 = load ptr, ptr %reg5, align 8
  %availableIDs6 = getelementptr inbounds %"class.icu_75::TransliteratorRegistry", ptr %6, i32 0, i32 4
  %pos = getelementptr inbounds %"class.icu_75::TransliteratorRegistry::Enumeration", ptr %this1, i32 0, i32 1
  %call7 = call noundef ptr @_ZNK6icu_759Hashtable11nextElementERi(ptr noundef nonnull align 8 dereferenceable(88) %availableIDs6, ptr noundef nonnull align 4 dereferenceable(4) %pos)
  store ptr %call7, ptr %element, align 8
  %7 = load ptr, ptr %element, align 8
  %cmp8 = icmp eq ptr %7, null
  br i1 %cmp8, label %if.then9, label %if.end10

if.then9:                                         ; preds = %if.end4
  store ptr null, ptr %retval, align 8
  br label %return

if.end10:                                         ; preds = %if.end4
  %8 = load ptr, ptr %element, align 8
  %key = getelementptr inbounds %struct.UHashElement, ptr %8, i32 0, i32 2
  %9 = load ptr, ptr %key, align 8
  %unistr = getelementptr inbounds %"class.icu_75::StringEnumeration", ptr %this1, i32 0, i32 1
  %call11 = call noundef nonnull align 8 dereferenceable(64) ptr @_ZN6icu_7513UnicodeStringaSERKS0_(ptr noundef nonnull align 8 dereferenceable(64) %unistr, ptr noundef nonnull align 8 dereferenceable(64) %9)
  %unistr12 = getelementptr inbounds %"class.icu_75::StringEnumeration", ptr %this1, i32 0, i32 1
  store ptr %unistr12, ptr %retval, align 8
  br label %return

return:                                           ; preds = %if.end10, %if.then9, %if.then3, %if.then
  %10 = load ptr, ptr %retval, align 8
  ret ptr %10
}