; Function Attrs: mustprogress uwtable
define noundef ptr @_ZN6icu_7522TransliteratorRegistry11Enumeration5snextER10UErrorCode(ptr noundef nonnull align 8 dereferenceable(136) %this, ptr nocapture noundef nonnull align 4 dereferenceable(4) %status) unnamed_addr #1 align 2 {
entry:
  %0 = load i32, ptr %status, align 4
  %cmp.i = icmp slt i32 %0, 1
  br i1 %cmp.i, label %if.end, label %return

if.end:                                           ; preds = %entry
  %reg = getelementptr inbounds i8, ptr %this, i64 128
  %1 = load ptr, ptr %reg, align 8
  %availableIDs = getelementptr inbounds i8, ptr %1, i64 224
  %2 = load ptr, ptr %availableIDs, align 8
  %call.i = tail call noundef i32 @uhash_count_75(ptr noundef %2)
  %size = getelementptr inbounds i8, ptr %this, i64 120
  %3 = load i32, ptr %size, align 8
  %cmp.not = icmp eq i32 %call.i, %3
  br i1 %cmp.not, label %if.end4, label %if.then3

if.then3:                                         ; preds = %if.end
  store i32 25, ptr %status, align 4
  br label %return

if.end4:                                          ; preds = %if.end
  %4 = load ptr, ptr %reg, align 8
  %availableIDs6 = getelementptr inbounds i8, ptr %4, i64 224
  %pos = getelementptr inbounds i8, ptr %this, i64 116
  %5 = load ptr, ptr %availableIDs6, align 8
  %call.i3 = tail call noundef ptr @uhash_nextElement_75(ptr noundef %5, ptr noundef nonnull %pos)
  %cmp8 = icmp eq ptr %call.i3, null
  br i1 %cmp8, label %return, label %if.end10

if.end10:                                         ; preds = %if.end4
  %key = getelementptr inbounds i8, ptr %call.i3, i64 16
  %6 = load ptr, ptr %key, align 8
  %unistr = getelementptr inbounds i8, ptr %this, i64 8
  %call11 = tail call noundef nonnull align 8 dereferenceable(64) ptr @_ZN6icu_7513UnicodeStringaSERKS0_(ptr noundef nonnull align 8 dereferenceable(64) %unistr, ptr noundef nonnull align 8 dereferenceable(64) %6)
  br label %return

return:                                           ; preds = %if.end4, %entry, %if.end10, %if.then3
  %retval.0 = phi ptr [ null, %if.then3 ], [ %unistr, %if.end10 ], [ null, %entry ], [ null, %if.end4 ]
  ret ptr %retval.0
}